; Function Attrs: mustprogress nofree norecurse nosync nounwind memory(argmem: readwrite) uwtable
define internal void @_ZN2cvL15batchDistL1_32fEPKfS1_miiPfPKh(ptr nocapture noundef readonly %0, ptr nocapture noundef readonly %1, i64 noundef %2, i32 noundef %3, i32 noundef %4, ptr nocapture noundef writeonly %5, ptr noundef readonly %6) #4 {
  %8 = lshr i64 %2, 2
  %.not.i = icmp eq ptr %6, null
  %9 = icmp sgt i32 %3, 0
  br i1 %.not.i, label %.preheader.i, label %.preheader36.i

.preheader36.i:                                   ; preds = %7
  br i1 %9, label %.lr.ph.i, label %_ZN2cv12batchDistL1_IffEEvPKT_S3_miiPT0_PKh.exit

.lr.ph.i:                                         ; preds = %.preheader36.i
  %10 = icmp sgt i32 %4, 0
  %wide.trip.count.i29.i = zext nneg i32 %4 to i64
  %wide.trip.count50.i = zext nneg i32 %3 to i64
  br i1 %10, label %.lr.ph.split.us.i, label %.lr.ph.split.i

.lr.ph.split.us.i:                                ; preds = %.lr.ph.i, %_ZN2cvL6normL1IffEET0_PKT_S4_i.exit35.us.i
  %indvars.iv47.i = phi i64 [ %indvars.iv.next48.i, %_ZN2cvL6normL1IffEET0_PKT_S4_i.exit35.us.i ], [ 0, %.lr.ph.i ]
  %11 = getelementptr inbounds i8, ptr %6, i64 %indvars.iv47.i
  %12 = load i8, ptr %11, align 1
  %.not26.us.i = icmp eq i8 %12, 0
  br i1 %.not26.us.i, label %_ZN2cvL6normL1IffEET0_PKT_S4_i.exit35.us.i, label %.lr.ph.preheader.i28.us.i

.lr.ph.preheader.i28.us.i:                        ; preds = %.lr.ph.split.us.i
  %13 = mul i64 %indvars.iv47.i, %8
  %14 = getelementptr inbounds float, ptr %1, i64 %13
  br label %.lr.ph.i30.us.i

.lr.ph.i30.us.i:                                  ; preds = %.lr.ph.i30.us.i, %.lr.ph.preheader.i28.us.i
  %indvars.iv.i31.us.i = phi i64 [ 0, %.lr.ph.preheader.i28.us.i ], [ %indvars.iv.next.i33.us.i, %.lr.ph.i30.us.i ]
  %.011.i32.us.i = phi float [ 0.000000e+00, %.lr.ph.preheader.i28.us.i ], [ %21, %.lr.ph.i30.us.i ]
  %15 = getelementptr inbounds float, ptr %0, i64 %indvars.iv.i31.us.i
  %16 = load float, ptr %15, align 4
  %17 = getelementptr inbounds float, ptr %14, i64 %indvars.iv.i31.us.i
  %18 = load float, ptr %17, align 4
  %19 = fsub float %16, %18
  %20 = tail call noundef float @llvm.fabs.f32(float %19)
  %21 = fadd float %.011.i32.us.i, %20
  %indvars.iv.next.i33.us.i = add nuw nsw i64 %indvars.iv.i31.us.i, 1
  %exitcond.not.i34.us.i = icmp eq i64 %indvars.iv.next.i33.us.i, %wide.trip.count.i29.i
  br i1 %exitcond.not.i34.us.i, label %_ZN2cvL6normL1IffEET0_PKT_S4_i.exit35.us.i, label %.lr.ph.i30.us.i, !llvm.loop !51

_ZN2cvL6normL1IffEET0_PKT_S4_i.exit35.us.i:       ; preds = %.lr.ph.i30.us.i, %.lr.ph.split.us.i
  %22 = phi float [ 0x47EFFFFFE0000000, %.lr.ph.split.us.i ], [ %21, %.lr.ph.i30.us.i ]
  %23 = getelementptr inbounds float, ptr %5, i64 %indvars.iv47.i
  store float %22, ptr %23, align 4
  %indvars.iv.next48.i = add nuw nsw i64 %indvars.iv47.i, 1
  %exitcond51.not.i = icmp eq i64 %indvars.iv.next48.i, %wide.trip.count50.i
  br i1 %exitcond51.not.i, label %_ZN2cv12batchDistL1_IffEEvPKT_S3_miiPT0_PKh.exit, label %.lr.ph.split.us.i, !llvm.loop !52

.preheader.i:                                     ; preds = %7
  br i1 %9, label %.lr.ph41.i, label %_ZN2cv12batchDistL1_IffEEvPKT_S3_miiPT0_PKh.exit

.lr.ph41.i:                                       ; preds = %.preheader.i
  %24 = icmp sgt i32 %4, 0
  %wide.trip.count.i.i = zext nneg i32 %4 to i64
  %wide.trip.count58.i = zext nneg i32 %3 to i64
  br i1 %24, label %.lr.ph.preheader.i.us.i, label %_ZN2cvL6normL1IffEET0_PKT_S4_i.exit.preheader.i

_ZN2cvL6normL1IffEET0_PKT_S4_i.exit.preheader.i:  ; preds = %.lr.ph41.i
  %25 = shl nuw nsw i64 %wide.trip.count58.i, 2
  tail call void @llvm.memset.p0.i64(ptr align 4 %5, i8 0, i64 %25, i1 false)
  br label %_ZN2cv12batchDistL1_IffEEvPKT_S3_miiPT0_PKh.exit

.lr.ph.preheader.i.us.i:                          ; preds = %.lr.ph41.i, %_ZN2cvL6normL1IffEET0_PKT_S4_i.exit.loopexit.us.i
  %indvars.iv55.i = phi i64 [ %indvars.iv.next56.i, %_ZN2cvL6normL1IffEET0_PKT_S4_i.exit.loopexit.us.i ], [ 0, %.lr.ph41.i ]
  %26 = mul i64 %indvars.iv55.i, %8
  %27 = getelementptr inbounds float, ptr %1, i64 %26
  br label %.lr.ph.i.us.i

.lr.ph.i.us.i:                                    ; preds = %.lr.ph.i.us.i, %.lr.ph.preheader.i.us.i
  %indvars.iv.i.us.i = phi i64 [ 0, %.lr.ph.preheader.i.us.i ], [ %indvars.iv.next.i.us.i, %.lr.ph.i.us.i ]
  %.011.i.us.i = phi float [ 0.000000e+00, %.lr.ph.preheader.i.us.i ], [ %34, %.lr.ph.i.us.i ]
  %28 = getelementptr inbounds float, ptr %0, i64 %indvars.iv.i.us.i
  %29 = load float, ptr %28, align 4
  %30 = getelementptr inbounds float, ptr %27, i64 %indvars.iv.i.us.i
  %31 = load float, ptr %30, align 4
  %32 = fsub float %29, %31
  %33 = tail call noundef float @llvm.fabs.f32(float %32)
  %34 = fadd float %.011.i.us.i, %33
  %indvars.iv.next.i.us.i = add nuw nsw i64 %indvars.iv.i.us.i, 1
  %exitcond.not.i.us.i = icmp eq i64 %indvars.iv.next.i.us.i, %wide.trip.count.i.i
  br i1 %exitcond.not.i.us.i, label %_ZN2cvL6normL1IffEET0_PKT_S4_i.exit.loopexit.us.i, label %.lr.ph.i.us.i, !llvm.loop !51

_ZN2cvL6normL1IffEET0_PKT_S4_i.exit.loopexit.us.i: ; preds = %.lr.ph.i.us.i
  %35 = getelementptr inbounds float, ptr %5, i64 %indvars.iv55.i
  store float %34, ptr %35, align 4
  %indvars.iv.next56.i = add nuw nsw i64 %indvars.iv55.i, 1
  %exitcond59.not.i = icmp eq i64 %indvars.iv.next56.i, %wide.trip.count58.i
  br i1 %exitcond59.not.i, label %_ZN2cv12batchDistL1_IffEEvPKT_S3_miiPT0_PKh.exit, label %.lr.ph.preheader.i.us.i, !llvm.loop !53

.lr.ph.split.i:                                   ; preds = %.lr.ph.i, %.lr.ph.split.i
  %indvars.iv.i = phi i64 [ %indvars.iv.next.i, %.lr.ph.split.i ], [ 0, %.lr.ph.i ]
  %36 = getelementptr inbounds i8, ptr %6, i64 %indvars.iv.i
  %37 = load i8, ptr %36, align 1
  %.not26.i = icmp eq i8 %37, 0
  %38 = select i1 %.not26.i, float 0x47EFFFFFE0000000, float 0.000000e+00
  %39 = getelementptr inbounds float, ptr %5, i64 %indvars.iv.i
  store float %38, ptr %39, align 4
  %indvars.iv.next.i = add nuw nsw i64 %indvars.iv.i, 1
  %exitcond.not.i = icmp eq i64 %indvars.iv.next.i, %wide.trip.count50.i
  br i1 %exitcond.not.i, label %_ZN2cv12batchDistL1_IffEEvPKT_S3_miiPT0_PKh.exit, label %.lr.ph.split.i, !llvm.loop !52

_ZN2cv12batchDistL1_IffEEvPKT_S3_miiPT0_PKh.exit: ; preds = %.lr.ph.split.i, %_ZN2cvL6normL1IffEET0_PKT_S4_i.exit35.us.i, %_ZN2cvL6normL1IffEET0_PKT_S4_i.exit.loopexit.us.i, %.preheader36.i, %.preheader.i, %_ZN2cvL6normL1IffEET0_PKT_S4_i.exit.preheader.i
  ret void
}